target datalayout = "e-m:e-p270:32:32-p271:32:32-p272:64:64-i64:64-i128:128-f80:128-n8:16:32:64-S128"
target triple = "x86_64-pc-linux-gnu"

%"class.std::__cxx11::basic_string" = type { %"struct.std::__cxx11::basic_string<char>::_Alloc_hider", i64, %union.anon }
%"struct.std::__cxx11::basic_string<char>::_Alloc_hider" = type { ptr }
%union.anon = type { i64, [8 x i8] }
%"struct.cmGlobVerificationManager::CacheEntryKey" = type { i8, i8, i8, %"class.std::__cxx11::basic_string", %"class.std::__cxx11::basic_string" }

@.str.23 = private unnamed_addr constant [10 x i8] c"file(GLOB\00", align 1
@.str.24 = private unnamed_addr constant [10 x i8] c"_RECURSE \00", align 1
@.str.25 = private unnamed_addr constant [2 x i8] c" \00", align 1
@.str.26 = private unnamed_addr constant [17 x i8] c"FOLLOW_SYMLINKS \00", align 1
@.str.27 = private unnamed_addr constant [18 x i8] c"LIST_DIRECTORIES \00", align 1
@.str.28 = private unnamed_addr constant [11 x i8] c"RELATIVE \22\00", align 1
@.str.29 = private unnamed_addr constant [3 x i8] c"\22 \00", align 1
@.str.30 = private unnamed_addr constant [2 x i8] c"\22\00", align 1
@.str.31 = private unnamed_addr constant [3 x i8] c"\22)\00", align 1

; Function Attrs: mustprogress uwtable
define dso_local void @_ZN25cmGlobVerificationManager13CacheEntryKey16PrintGlobCommandERSoRKNSt7__cxx1112basic_stringIcSt11char_traitsIcESaIcEEE(ptr noundef nonnull align 8 dereferenceable(72) %0, ptr noundef nonnull align 8 dereferenceable(8) %1, ptr noundef nonnull align 8 dereferenceable(32) %2) #4 align 2 {
  %4 = alloca ptr, align 8
  %5 = alloca ptr, align 8
  %6 = alloca ptr, align 8
  store ptr %0, ptr %4, align 8
  store ptr %1, ptr %5, align 8
  store ptr %2, ptr %6, align 8
  %7 = load ptr, ptr %4, align 8
  %8 = load ptr, ptr %5, align 8
  %9 = call noundef nonnull align 8 dereferenceable(8) ptr @_ZStlsISt11char_traitsIcEERSt13basic_ostreamIcT_ES5_PKc(ptr noundef nonnull align 8 dereferenceable(8) %8, ptr noundef @.str.23)
  %10 = getelementptr inbounds %"struct.cmGlobVerificationManager::CacheEntryKey", ptr %7, i32 0, i32 0
  %11 = load i8, ptr %10, align 8
  %12 = trunc i8 %11 to i1
  %13 = select i1 %12, ptr @.str.24, ptr @.str.25
  %14 = call noundef nonnull align 8 dereferenceable(8) ptr @_ZStlsISt11char_traitsIcEERSt13basic_ostreamIcT_ES5_PKc(ptr noundef nonnull align 8 dereferenceable(8) %9, ptr noundef %13)
  %15 = load ptr, ptr %5, align 8
  %16 = load ptr, ptr %6, align 8
  %17 = call noundef nonnull align 8 dereferenceable(8) ptr @_ZStlsIcSt11char_traitsIcESaIcEERSt13basic_ostreamIT_T0_ES7_RKNSt7__cxx1112basic_stringIS4_S5_T1_EE(ptr noundef nonnull align 8 dereferenceable(8) %15, ptr noundef nonnull align 8 dereferenceable(32) %16)
  %18 = call noundef nonnull align 8 dereferenceable(8) ptr @_ZStlsISt11char_traitsIcEERSt13basic_ostreamIcT_ES5_PKc(ptr noundef nonnull align 8 dereferenceable(8) %17, ptr noundef @.str.25)
  %19 = getelementptr inbounds %"struct.cmGlobVerificationManager::CacheEntryKey", ptr %7, i32 0, i32 0
  %20 = load i8, ptr %19, align 8
  %21 = trunc i8 %20 to i1
  br i1 %21, label %22, label %29

22:                                               ; preds = %3
  %23 = getelementptr inbounds %"struct.cmGlobVerificationManager::CacheEntryKey", ptr %7, i32 0, i32 2
  %24 = load i8, ptr %23, align 2
  %25 = trunc i8 %24 to i1
  br i1 %25, label %26, label %29

26:                                               ; preds = %22
  %27 = load ptr, ptr %5, align 8
  %28 = call noundef nonnull align 8 dereferenceable(8) ptr @_ZStlsISt11char_traitsIcEERSt13basic_ostreamIcT_ES5_PKc(ptr noundef nonnull align 8 dereferenceable(8) %27, ptr noundef @.str.26)
  br label %29

29:                                               ; preds = %26, %22, %3
  %30 = load ptr, ptr %5, align 8
  %31 = call noundef nonnull align 8 dereferenceable(8) ptr @_ZStlsISt11char_traitsIcEERSt13basic_ostreamIcT_ES5_PKc(ptr noundef nonnull align 8 dereferenceable(8) %30, ptr noundef @.str.27)
  %32 = getelementptr inbounds %"struct.cmGlobVerificationManager::CacheEntryKey", ptr %7, i32 0, i32 1
  %33 = load i8, ptr %32, align 1
  %34 = trunc i8 %33 to i1
  %35 = call noundef nonnull align 8 dereferenceable(8) ptr @_ZNSolsEb(ptr noundef nonnull align 8 dereferenceable(8) %31, i1 noundef zeroext %34)
  %36 = call noundef nonnull align 8 dereferenceable(8) ptr @_ZStlsISt11char_traitsIcEERSt13basic_ostreamIcT_ES5_PKc(ptr noundef nonnull align 8 dereferenceable(8) %35, ptr noundef @.str.25)
  %37 = getelementptr inbounds %"struct.cmGlobVerificationManager::CacheEntryKey", ptr %7, i32 0, i32 3
  %38 = call noundef zeroext i1 @_ZNKSt7__cxx1112basic_stringIcSt11char_traitsIcESaIcEE5emptyEv(ptr noundef nonnull align 8 dereferenceable(32) %37) #3
  br i1 %38, label %45, label %39

39:                                               ; preds = %29
  %40 = load ptr, ptr %5, align 8
  %41 = call noundef nonnull align 8 dereferenceable(8) ptr @_ZStlsISt11char_traitsIcEERSt13basic_ostreamIcT_ES5_PKc(ptr noundef nonnull align 8 dereferenceable(8) %40, ptr noundef @.str.28)
  %42 = getelementptr inbounds %"struct.cmGlobVerificationManager::CacheEntryKey", ptr %7, i32 0, i32 3
  %43 = call noundef nonnull align 8 dereferenceable(8) ptr @_ZStlsIcSt11char_traitsIcESaIcEERSt13basic_ostreamIT_T0_ES7_RKNSt7__cxx1112basic_stringIS4_S5_T1_EE(ptr noundef nonnull align 8 dereferenceable(8) %41, ptr noundef nonnull align 8 dereferenceable(32) %42)
  %44 = call noundef nonnull align 8 dereferenceable(8) ptr @_ZStlsISt11char_traitsIcEERSt13basic_ostreamIcT_ES5_PKc(ptr noundef nonnull align 8 dereferenceable(8) %43, ptr noundef @.str.29)
  br label %45

45:                                               ; preds = %39, %29
  %46 = load ptr, ptr %5, align 8
  %47 = call noundef nonnull align 8 dereferenceable(8) ptr @_ZStlsISt11char_traitsIcEERSt13basic_ostreamIcT_ES5_PKc(ptr noundef nonnull align 8 dereferenceable(8) %46, ptr noundef @.str.30)
  %48 = getelementptr inbounds %"struct.cmGlobVerificationManager::CacheEntryKey", ptr %7, i32 0, i32 4
  %49 = call noundef nonnull align 8 dereferenceable(8) ptr @_ZStlsIcSt11char_traitsIcESaIcEERSt13basic_ostreamIT_T0_ES7_RKNSt7__cxx1112basic_stringIS4_S5_T1_EE(ptr noundef nonnull align 8 dereferenceable(8) %47, ptr noundef nonnull align 8 dereferenceable(32) %48)
  %50 = call noundef nonnull align 8 dereferenceable(8) ptr @_ZStlsISt11char_traitsIcEERSt13basic_ostreamIcT_ES5_PKc(ptr noundef nonnull align 8 dereferenceable(8) %49, ptr noundef @.str.31)
  ret void
}